target datalayout = "e-m:e-p270:32:32-p271:32:32-p272:64:64-i64:64-i128:128-f80:128-n8:16:32:64-S128"
target triple = "x86_64-pc-linux-gnu"

%struct._proto_node = type { ptr, ptr, ptr, ptr, ptr, ptr, ptr }
%struct.field_info = type { ptr, i32, i32, i32, i32, i32, i32, ptr, ptr, ptr, i32, i32 }

@hf_rtps_type_object_type_id_disc = internal global i32 0, align 4
@hf_rtps_type_object_primitive_type_id = internal global i32 0, align 4
@hf_rtps_type_object_base_primitive_type_id = internal global i32 0, align 4
@hf_rtps_type_object_type_id = internal global i32 0, align 4
@hf_rtps_type_object_base_type = internal global i32 0, align 4
@.str.1253 = private unnamed_addr constant [5 x i8] c"(%s)\00", align 1
@.str.1254 = private unnamed_addr constant [10 x i8] c"(0x%016x)\00", align 1
@.str.1255 = private unnamed_addr constant [11 x i8] c"(0x%016lx)\00", align 1

; Function Attrs: inlinehint nounwind null_pointer_is_valid sspstrong uwtable
define internal void @proto_item_set_hidden(ptr noundef %0) #10 {
  %2 = alloca ptr, align 8
  store ptr %0, ptr %2, align 8
  %3 = load ptr, ptr %2, align 8
  %4 = icmp ne ptr %3, null
  br i1 %4, label %5, label %24

5:                                                ; preds = %1
  br label %6

6:                                                ; preds = %5
  %7 = load ptr, ptr %2, align 8
  %8 = getelementptr inbounds nuw %struct._proto_node, ptr %7, i32 0, i32 5
  %9 = load ptr, ptr %8, align 8
  %10 = icmp ne ptr %9, null
  br i1 %10, label %11, label %22

11:                                               ; preds = %6
  %12 = load ptr, ptr %2, align 8
  %13 = getelementptr inbounds nuw %struct._proto_node, ptr %12, i32 0, i32 5
  %14 = load ptr, ptr %13, align 8
  %15 = getelementptr inbounds nuw %struct.field_info, ptr %14, i32 0, i32 6
  %16 = load i32, ptr %15, align 4
  %17 = or i32 %16, 1
  %18 = load ptr, ptr %2, align 8
  %19 = getelementptr inbounds nuw %struct._proto_node, ptr %18, i32 0, i32 5
  %20 = load ptr, ptr %19, align 8
  %21 = getelementptr inbounds nuw %struct.field_info, ptr %20, i32 0, i32 6
  store i32 %17, ptr %21, align 4
  br label %22

22:                                               ; preds = %11, %6
  br label %23

23:                                               ; preds = %22
  br label %24

24:                                               ; preds = %23, %1
  ret void
}

; Function Attrs: null_pointer_is_valid sspstrong uwtable
define internal i32 @rtps_util_add_type_id(ptr noundef %0, ptr noundef %1, i32 noundef %2, i32 noundef %3, i32 noundef %4, i32 noundef %5, ptr noundef %6, ptr noundef %7) #0 {
  %9 = alloca ptr, align 8
  %10 = alloca ptr, align 8
  %11 = alloca i32, align 4
  %12 = alloca i32, align 4
  %13 = alloca i32, align 4
  %14 = alloca i32, align 4
  %15 = alloca ptr, align 8
  %16 = alloca ptr, align 8
  %17 = alloca ptr, align 8
  %18 = alloca i16, align 2
  %19 = alloca i64, align 8
  %20 = alloca i32, align 4
  store ptr %0, ptr %9, align 8
  store ptr %1, ptr %10, align 8
  store i32 %2, ptr %11, align 4
  store i32 %3, ptr %12, align 4
  store i32 %4, ptr %13, align 4
  store i32 %5, ptr %14, align 4
  store ptr %6, ptr %15, align 8
  store ptr %7, ptr %16, align 8
  call void @llvm.lifetime.start.p0(i64 8, ptr %17) #14
  call void @llvm.lifetime.start.p0(i64 2, ptr %18) #14
  call void @llvm.lifetime.start.p0(i64 8, ptr %19) #14
  call void @llvm.lifetime.start.p0(i64 4, ptr %20) #14
  %21 = load ptr, ptr %10, align 8
  %22 = load i32, ptr %11, align 4
  %23 = load i32, ptr %12, align 4
  %24 = call zeroext i16 @tvb_get_uint16(ptr noundef %21, i32 noundef %22, i32 noundef %23)
  store i16 %24, ptr %18, align 2
  %25 = load ptr, ptr %9, align 8
  %26 = load i32, ptr @hf_rtps_type_object_type_id_disc, align 4
  %27 = load ptr, ptr %10, align 8
  %28 = load i32, ptr %11, align 4
  %29 = load i32, ptr %12, align 4
  %30 = call ptr @proto_tree_add_item(ptr noundef %25, i32 noundef %26, ptr noundef %27, i32 noundef %28, i32 noundef 2, i32 noundef %29)
  store ptr %30, ptr %17, align 8
  %31 = load ptr, ptr %17, align 8
  call void @proto_item_set_hidden(ptr noundef %31)
  %32 = load i32, ptr %14, align 4
  %33 = icmp ne i32 %32, -1
  br i1 %33, label %34, label %43

34:                                               ; preds = %8
  %35 = load i16, ptr %18, align 2
  %36 = zext i16 %35 to i32
  %37 = icmp sle i32 %36, 13
  br i1 %37, label %38, label %40

38:                                               ; preds = %34
  %39 = load i32, ptr @hf_rtps_type_object_base_primitive_type_id, align 4
  store i32 %39, ptr %20, align 4
  br label %42

40:                                               ; preds = %34
  %41 = load i32, ptr @hf_rtps_type_object_base_type, align 4
  store i32 %41, ptr %20, align 4
  br label %42

42:                                               ; preds = %40, %38
  br label %52

43:                                               ; preds = %8
  %44 = load i16, ptr %18, align 2
  %45 = zext i16 %44 to i32
  %46 = icmp sle i32 %45, 13
  br i1 %46, label %47, label %49

47:                                               ; preds = %43
  %48 = load i32, ptr @hf_rtps_type_object_primitive_type_id, align 4
  store i32 %48, ptr %20, align 4
  br label %51

49:                                               ; preds = %43
  %50 = load i32, ptr @hf_rtps_type_object_type_id, align 4
  store i32 %50, ptr %20, align 4
  br label %51

51:                                               ; preds = %49, %47
  br label %52

52:                                               ; preds = %51, %42
  %53 = load i32, ptr %11, align 4
  %54 = add i32 %53, 2
  store i32 %54, ptr %11, align 4
  %55 = load i16, ptr %18, align 2
  %56 = zext i16 %55 to i32
  %57 = icmp sle i32 %56, 13
  br i1 %57, label %58, label %75

58:                                               ; preds = %52
  %59 = load ptr, ptr %9, align 8
  %60 = load i32, ptr %20, align 4
  %61 = load ptr, ptr %10, align 8
  %62 = load i32, ptr %11, align 4
  %63 = load i32, ptr %12, align 4
  %64 = call ptr @proto_tree_add_item(ptr noundef %59, i32 noundef %60, ptr noundef %61, i32 noundef %62, i32 noundef 2, i32 noundef %63)
  %65 = load ptr, ptr %15, align 8
  %66 = icmp ne ptr %65, null
  br i1 %66, label %67, label %72

67:                                               ; preds = %58
  %68 = load ptr, ptr %15, align 8
  %69 = load i16, ptr %18, align 2
  %70 = zext i16 %69 to i32
  %71 = call ptr @val_to_str(i32 noundef %70, ptr noundef @type_object_kind, ptr noundef @.str.1254)
  call void (ptr, ptr, ...) @proto_item_append_text(ptr noundef %68, ptr noundef @.str.1253, ptr noundef %71)
  br label %72

72:                                               ; preds = %67, %58
  %73 = load i32, ptr %11, align 4
  %74 = add i32 %73, 2
  store i32 %74, ptr %11, align 4
  br label %103

75:                                               ; preds = %52
  %76 = load i32, ptr %13, align 4
  %77 = load i32, ptr %11, align 4
  %78 = sub i32 %77, %76
  store i32 %78, ptr %11, align 4
  %79 = load i32, ptr %11, align 4
  %80 = add i32 %79, 7
  %81 = and i32 %80, -8
  store i32 %81, ptr %11, align 4
  %82 = load i32, ptr %13, align 4
  %83 = load i32, ptr %11, align 4
  %84 = add i32 %83, %82
  store i32 %84, ptr %11, align 4
  %85 = load ptr, ptr %10, align 8
  %86 = load i32, ptr %11, align 4
  %87 = load i32, ptr %12, align 4
  %88 = call i64 @tvb_get_uint64(ptr noundef %85, i32 noundef %86, i32 noundef %87)
  store i64 %88, ptr %19, align 8
  %89 = load ptr, ptr %9, align 8
  %90 = load i32, ptr %20, align 4
  %91 = load ptr, ptr %10, align 8
  %92 = load i32, ptr %11, align 4
  %93 = load i32, ptr %12, align 4
  %94 = call ptr @proto_tree_add_item(ptr noundef %89, i32 noundef %90, ptr noundef %91, i32 noundef %92, i32 noundef 8, i32 noundef %93)
  %95 = load ptr, ptr %15, align 8
  %96 = icmp ne ptr %95, null
  br i1 %96, label %97, label %100

97:                                               ; preds = %75
  %98 = load ptr, ptr %15, align 8
  %99 = load i64, ptr %19, align 8
  call void (ptr, ptr, ...) @proto_item_append_text(ptr noundef %98, ptr noundef @.str.1255, i64 noundef %99)
  br label %100

100:                                              ; preds = %97, %75
  %101 = load i32, ptr %11, align 4
  %102 = add i32 %101, 8
  store i32 %102, ptr %11, align 4
  br label %103

103:                                              ; preds = %100, %72
  %104 = load i16, ptr %18, align 2
  %105 = zext i16 %104 to i32
  %106 = icmp sle i32 %105, 13
  br i1 %106, label %107, label %115

107:                                              ; preds = %103
  %108 = load ptr, ptr %16, align 8
  %109 = icmp ne ptr %108, null
  br i1 %109, label %110, label %114

110:                                              ; preds = %107
  %111 = load i16, ptr %18, align 2
  %112 = zext i16 %111 to i64
  %113 = load ptr, ptr %16, align 8
  store i64 %112, ptr %113, align 8
  br label %114

114:                                              ; preds = %110, %107
  br label %122

115:                                              ; preds = %103
  %116 = load ptr, ptr %16, align 8
  %117 = icmp ne ptr %116, null
  br i1 %117, label %118, label %121

118:                                              ; preds = %115
  %119 = load i64, ptr %19, align 8
  %120 = load ptr, ptr %16, align 8
  store i64 %119, ptr %120, align 8
  br label %121

121:                                              ; preds = %118, %115
  br label %122

122:                                              ; preds = %121, %114
  %123 = load i32, ptr %11, align 4
  call void @llvm.lifetime.end.p0(i64 4, ptr %20) #14
  call void @llvm.lifetime.end.p0(i64 8, ptr %19) #14
  call void @llvm.lifetime.end.p0(i64 2, ptr %18) #14
  call void @llvm.lifetime.end.p0(i64 8, ptr %17) #14
  ret i32 %123
}