; Function Attrs: null_pointer_is_valid sspstrong uwtable
define internal fastcc noundef i32 @rtps_util_add_type_id(ptr noundef %0, ptr noundef %1, i32 noundef %2, i32 noundef range(i32 0, -2147483647) %3, i32 noundef %4, i32 noundef %5, ptr noundef %6, ptr noundef writeonly captures(address_is_null) %7) unnamed_addr #0 {
  %9 = tail call zeroext i16 @tvb_get_uint16(ptr noundef %1, i32 noundef %2, i32 noundef %3)
  %10 = load i32, ptr @hf_rtps_type_object_type_id_disc, align 4
  %11 = tail call ptr @proto_tree_add_item(ptr noundef %0, i32 noundef %10, ptr noundef %1, i32 noundef %2, i32 noundef 2, i32 noundef %3)
  %.not.i = icmp eq ptr %11, null
  br i1 %.not.i, label %proto_item_set_hidden.exit, label %12

12:                                               ; preds = %8
  %13 = getelementptr inbounds nuw i8, ptr %11, i64 40
  %14 = load ptr, ptr %13, align 8
  %.not5.i = icmp eq ptr %14, null
  br i1 %.not5.i, label %proto_item_set_hidden.exit, label %15

15:                                               ; preds = %12
  %16 = getelementptr inbounds nuw i8, ptr %14, i64 28
  %17 = load i32, ptr %16, align 4
  %18 = or i32 %17, 1
  store i32 %18, ptr %16, align 4
  br label %proto_item_set_hidden.exit

proto_item_set_hidden.exit:                       ; preds = %8, %12, %15
  %.not = icmp eq i32 %5, -1
  %19 = icmp ult i16 %9, 14
  %hf_rtps_type_object_primitive_type_id.val = load i32, ptr @hf_rtps_type_object_primitive_type_id, align 4
  %hf_rtps_type_object_type_id.val = load i32, ptr @hf_rtps_type_object_type_id, align 4
  %hf_rtps_type_object_primitive_type_id.hf_rtps_type_object_type_id.val = select i1 %19, i32 %hf_rtps_type_object_primitive_type_id.val, i32 %hf_rtps_type_object_type_id.val
  %hf_rtps_type_object_base_primitive_type_id.val = load i32, ptr @hf_rtps_type_object_base_primitive_type_id, align 4
  %hf_rtps_type_object_base_type.val = load i32, ptr @hf_rtps_type_object_base_type, align 4
  %hf_rtps_type_object_base_primitive_type_id.hf_rtps_type_object_base_type.val = select i1 %19, i32 %hf_rtps_type_object_base_primitive_type_id.val, i32 %hf_rtps_type_object_base_type.val
  %.0 = select i1 %.not, i32 %hf_rtps_type_object_primitive_type_id.hf_rtps_type_object_type_id.val, i32 %hf_rtps_type_object_base_primitive_type_id.hf_rtps_type_object_base_type.val
  %20 = zext i16 %9 to i32
  br i1 %19, label %21, label %26

21:                                               ; preds = %proto_item_set_hidden.exit
  %22 = add i32 %2, 2
  %23 = tail call ptr @proto_tree_add_item(ptr noundef %0, i32 noundef %.0, ptr noundef %1, i32 noundef %22, i32 noundef 2, i32 noundef %3)
  %.not53 = icmp eq ptr %6, null
  br i1 %.not53, label %34, label %24

24:                                               ; preds = %21
  %25 = tail call ptr @val_to_str(i32 noundef %20, ptr noundef nonnull @type_object_kind, ptr noundef nonnull @.str.1254)
  tail call void (ptr, ptr, ...) @proto_item_append_text(ptr noundef nonnull %6, ptr noundef nonnull @.str.1253, ptr noundef %25)
  br label %34

26:                                               ; preds = %proto_item_set_hidden.exit
  %27 = add i32 %2, 9
  %28 = sub i32 %27, %4
  %29 = and i32 %28, -8
  %30 = add i32 %29, %4
  %31 = tail call i64 @tvb_get_uint64(ptr noundef %1, i32 noundef %30, i32 noundef %3)
  %32 = tail call ptr @proto_tree_add_item(ptr noundef %0, i32 noundef %.0, ptr noundef %1, i32 noundef %30, i32 noundef 8, i32 noundef %3)
  %.not52 = icmp eq ptr %6, null
  br i1 %.not52, label %38, label %33

33:                                               ; preds = %26
  tail call void (ptr, ptr, ...) @proto_item_append_text(ptr noundef nonnull %6, ptr noundef nonnull @.str.1255, i64 noundef %31)
  br label %38

34:                                               ; preds = %21, %24
  %35 = add i32 %2, 4
  %.not55 = icmp eq ptr %7, null
  br i1 %.not55, label %40, label %36

36:                                               ; preds = %34
  %37 = zext nneg i16 %9 to i64
  br label %.sink.split

38:                                               ; preds = %33, %26
  %39 = add i32 %30, 8
  %.not54 = icmp eq ptr %7, null
  br i1 %.not54, label %40, label %.sink.split

.sink.split:                                      ; preds = %38, %36
  %.sink = phi i64 [ %37, %36 ], [ %31, %38 ]
  %.04758.ph = phi i32 [ %35, %36 ], [ %39, %38 ]
  store i64 %.sink, ptr %7, align 8
  br label %40

40:                                               ; preds = %.sink.split, %38, %34
  %.04758 = phi i32 [ %39, %38 ], [ %35, %34 ], [ %.04758.ph, %.sink.split ]
  ret i32 %.04758
}